target datalayout = "e-m:e-p270:32:32-p271:32:32-p272:64:64-i64:64-i128:128-f80:128-n8:16:32:64-S128"
target triple = "x86_64-pc-linux-gnu"

%class.anon.10 = type { i8 }

; Function Attrs: inlinehint mustprogress nounwind uwtable
define internal void @"_ZZN5arrow4util5MutexC1EvENK3$_0clEPNS1_4ImplE"(ptr noundef nonnull align 1 dereferenceable(1) %0, ptr noundef %1) #2 align 2 {
  %3 = alloca ptr, align 8
  %4 = alloca ptr, align 8
  store ptr %0, ptr %3, align 8, !tbaa !10
  store ptr %1, ptr %4, align 8, !tbaa !26
  %5 = load ptr, ptr %4, align 8, !tbaa !26
  %6 = icmp eq ptr %5, null
  br i1 %6, label %8, label %7

7:                                                ; preds = %2
  call void @_ZdlPvm(ptr noundef %5, i64 noundef 40) #16
  br label %8

8:                                                ; preds = %7, %2
  ret void
}

; Function Attrs: inlinehint mustprogress uwtable
define internal void @"_ZZN5arrow4util5MutexC1EvEN3$_08__invokeEPNS1_4ImplE"(ptr noundef %0) #6 align 2 {
  %2 = alloca ptr, align 8
  %3 = alloca %class.anon.10, align 1
  store ptr %0, ptr %2, align 8, !tbaa !26
  %4 = load ptr, ptr %2, align 8, !tbaa !26
  call void @"_ZZN5arrow4util5MutexC1EvENK3$_0clEPNS1_4ImplE"(ptr noundef nonnull align 1 dereferenceable(1) %3, ptr noundef %4)
  ret void
}