; Function Attrs: inlinehint mustprogress nounwind uwtable
define internal void @"_ZZN5arrow4util5MutexC1EvEN3$_08__invokeEPNS1_4ImplE"(ptr noundef %0) #4 align 2 {
  %2 = icmp eq ptr %0, null
  br i1 %2, label %"_ZZN5arrow4util5MutexC1EvENK3$_0clEPNS1_4ImplE.exit", label %3

3:                                                ; preds = %1
  tail call void @_ZdlPvm(ptr noundef nonnull %0, i64 noundef 40) #14
  br label %"_ZZN5arrow4util5MutexC1EvENK3$_0clEPNS1_4ImplE.exit"

"_ZZN5arrow4util5MutexC1EvENK3$_0clEPNS1_4ImplE.exit": ; preds = %1, %3
  ret void
}